target datalayout = "e-m:e-p270:32:32-p271:32:32-p272:64:64-i64:64-i128:128-f80:128-n8:16:32:64-S128"
target triple = "x86_64-pc-linux-gnu"

@.str = private unnamed_addr constant [116 x i8] c"generated/home/dtcxzyw/WorkSpace/Projects/compilers/llvm-opt-benchmark/bench/sundials/sundials/src/cvode/cvode_io.c\00", align 1
@.str.1 = private unnamed_addr constant [26 x i8] c"cvode_mem = NULL illegal.\00", align 1
@__func__.CVodeSetMonitorFn = private unnamed_addr constant [18 x i8] c"CVodeSetMonitorFn\00", align 1
@.str.2 = private unnamed_addr constant [48 x i8] c"SUNDIALS was not built with monitoring enabled.\00", align 1

; Function Attrs: nounwind uwtable
define i32 @CVodeSetMonitorFn(ptr noundef %0, ptr noundef %1) #0 {
  %3 = alloca i32, align 4
  %4 = alloca ptr, align 8
  %5 = alloca ptr, align 8
  %6 = alloca ptr, align 8
  store ptr %0, ptr %4, align 8
  store ptr %1, ptr %5, align 8
  %7 = load ptr, ptr %4, align 8
  %8 = icmp eq ptr %7, null
  br i1 %8, label %9, label %10

9:                                                ; preds = %2
  call void (ptr, i32, i32, ptr, ptr, ptr, ...) @cvProcessError(ptr noundef null, i32 noundef -21, i32 noundef 97, ptr noundef @__func__.CVodeSetMonitorFn, ptr noundef @.str, ptr noundef @.str.1)
  store i32 -21, ptr %3, align 4
  br label %13

10:                                               ; preds = %2
  %11 = load ptr, ptr %4, align 8
  store ptr %11, ptr %6, align 8
  %12 = load ptr, ptr %6, align 8
  call void (ptr, i32, i32, ptr, ptr, ptr, ...) @cvProcessError(ptr noundef %12, i32 noundef -22, i32 noundef 107, ptr noundef @__func__.CVodeSetMonitorFn, ptr noundef @.str, ptr noundef @.str.2)
  store i32 -22, ptr %3, align 4
  br label %13

13:                                               ; preds = %10, %9
  %14 = load i32, ptr %3, align 4
  ret i32 %14
}