; Function Attrs: nounwind uwtable
define range(i32 -22, -20) i32 @CVodeSetMonitorFn(ptr noundef %0, ptr noundef readnone captures(none) %1) local_unnamed_addr #0 {
  %3 = icmp eq ptr %0, null
  br i1 %3, label %4, label %5

4:                                                ; preds = %2
  tail call void (ptr, i32, i32, ptr, ptr, ptr, ...) @cvProcessError(ptr noundef null, i32 noundef -21, i32 noundef 97, ptr noundef nonnull @__func__.CVodeSetMonitorFn, ptr noundef nonnull @.str, ptr noundef nonnull @.str.1) #7
  br label %6

5:                                                ; preds = %2
  tail call void (ptr, i32, i32, ptr, ptr, ptr, ...) @cvProcessError(ptr noundef nonnull %0, i32 noundef -22, i32 noundef 107, ptr noundef nonnull @__func__.CVodeSetMonitorFn, ptr noundef nonnull @.str, ptr noundef nonnull @.str.2) #7
  br label %6

6:                                                ; preds = %5, %4
  %.0 = phi i32 [ -21, %4 ], [ -22, %5 ]
  ret i32 %.0
}